; ModuleID = '29/1188.c'
source_filename = "29/1188.c"
target datalayout = "e-m:e-p270:32:32-p271:32:32-p272:64:64-i64:64-f80:128-n8:16:32:64-S128"
target triple = "x86_64-pc-linux-gnu"

@.str = private unnamed_addr constant [3 x i8] c"%d\00", align 1
@.str.1 = private unnamed_addr constant [7 x i8] c"%.3lf\0A\00", align 1

; Function Attrs: noinline nounwind uwtable
define dso_local i32 @main() #0 {
  %1 = alloca i32, align 4
  %2 = alloca i32, align 4
  %3 = alloca i32, align 4
  %4 = alloca [500 x i32], align 16
  %5 = alloca [500 x i32], align 16
  %6 = alloca i32, align 4
  %7 = alloca double, align 8
  %8 = alloca [500 x i32], align 16
  store i32 0, i32* %1, align 4
  store i32 0, i32* %2, align 4
  store i32 0, i32* %3, align 4
  store double 0.000000e+00, double* %7, align 8
  %9 = call i32 (i8*, ...) @__isoc99_scanf(i8* getelementptr inbounds ([3 x i8], [3 x i8]* @.str, i64 0, i64 0), i32* %6)
  store i32 0, i32* %2, align 4
  br label %10

10:                                               ; preds = %19, %0
  %11 = load i32, i32* %2, align 4
  %12 = load i32, i32* %6, align 4
  %13 = icmp slt i32 %11, %12
  br i1 %13, label %14, label %22

14:                                               ; preds = %10
  %15 = load i32, i32* %2, align 4
  %16 = sext i32 %15 to i64
  %17 = getelementptr inbounds [500 x i32], [500 x i32]* %8, i64 0, i64 %16
  %18 = call i32 (i8*, ...) @__isoc99_scanf(i8* getelementptr inbounds ([3 x i8], [3 x i8]* @.str, i64 0, i64 0), i32* %17)
  br label %19

19:                                               ; preds = %14
  %20 = load i32, i32* %2, align 4
  %21 = add nsw i32 %20, 1
  store i32 %21, i32* %2, align 4
  br label %10

22:                                               ; preds = %10
  store i32 0, i32* %2, align 4
  store i32 0, i32* %2, align 4
  br label %23

23:                                               ; preds = %92, %22
  %24 = load i32, i32* %2, align 4
  %25 = load i32, i32* %6, align 4
  %26 = icmp slt i32 %24, %25
  br i1 %26, label %27, label %95

27:                                               ; preds = %23
  %28 = getelementptr inbounds [500 x i32], [500 x i32]* %4, i64 0, i64 0
  store i32 2, i32* %28, align 16
  %29 = getelementptr inbounds [500 x i32], [500 x i32]* %5, i64 0, i64 0
  store i32 1, i32* %29, align 16
  %30 = getelementptr inbounds [500 x i32], [500 x i32]* %4, i64 0, i64 1
  store i32 3, i32* %30, align 4
  %31 = getelementptr inbounds [500 x i32], [500 x i32]* %5, i64 0, i64 1
  store i32 2, i32* %31, align 4
  store double 0.000000e+00, double* %7, align 8
  store i32 0, i32* %3, align 4
  br label %32

32:                                               ; preds = %86, %27
  %33 = load i32, i32* %3, align 4
  %34 = load i32, i32* %2, align 4
  %35 = sext i32 %34 to i64
  %36 = getelementptr inbounds [500 x i32], [500 x i32]* %8, i64 0, i64 %35
  %37 = load i32, i32* %36, align 4
  %38 = icmp slt i32 %33, %37
  br i1 %38, label %39, label %89

39:                                               ; preds = %32
  %40 = load i32, i32* %3, align 4
  %41 = icmp sgt i32 %40, 1
  br i1 %41, label %42, label %71

42:                                               ; preds = %39
  %43 = load i32, i32* %3, align 4
  %44 = sub nsw i32 %43, 1
  %45 = sext i32 %44 to i64
  %46 = getelementptr inbounds [500 x i32], [500 x i32]* %4, i64 0, i64 %45
  %47 = load i32, i32* %46, align 4
  %48 = load i32, i32* %3, align 4
  %49 = sub nsw i32 %48, 2
  %50 = sext i32 %49 to i64
  %51 = getelementptr inbounds [500 x i32], [500 x i32]* %4, i64 0, i64 %50
  %52 = load i32, i32* %51, align 4
  %53 = add nsw i32 %47, %52
  %54 = load i32, i32* %3, align 4
  %55 = sext i32 %54 to i64
  %56 = getelementptr inbounds [500 x i32], [500 x i32]* %4, i64 0, i64 %55
  store i32 %53, i32* %56, align 4
  %57 = load i32, i32* %3, align 4
  %58 = sub nsw i32 %57, 1
  %59 = sext i32 %58 to i64
  %60 = getelementptr inbounds [500 x i32], [500 x i32]* %5, i64 0, i64 %59
  %61 = load i32, i32* %60, align 4
  %62 = load i32, i32* %3, align 4
  %63 = sub nsw i32 %62, 2
  %64 = sext i32 %63 to i64
  %65 = getelementptr inbounds [500 x i32], [500 x i32]* %5, i64 0, i64 %64
  %66 = load i32, i32* %65, align 4
  %67 = add nsw i32 %61, %66
  %68 = load i32, i32* %3, align 4
  %69 = sext i32 %68 to i64
  %70 = getelementptr inbounds [500 x i32], [500 x i32]* %5, i64 0, i64 %69
  store i32 %67, i32* %70, align 4
  br label %71

71:                                               ; preds = %42, %39
  %72 = load i32, i32* %3, align 4
  %73 = sext i32 %72 to i64
  %74 = getelementptr inbounds [500 x i32], [500 x i32]* %4, i64 0, i64 %73
  %75 = load i32, i32* %74, align 4
  %76 = sitofp i32 %75 to double
  %77 = fmul double %76, 1.000000e+00
  %78 = load i32, i32* %3, align 4
  %79 = sext i32 %78 to i64
  %80 = getelementptr inbounds [500 x i32], [500 x i32]* %5, i64 0, i64 %79
  %81 = load i32, i32* %80, align 4
  %82 = sitofp i32 %81 to double
  %83 = fdiv double %77, %82
  %84 = load double, double* %7, align 8
  %85 = fadd double %84, %83
  store double %85, double* %7, align 8
  br label %86

86:                                               ; preds = %71
  %87 = load i32, i32* %3, align 4
  %88 = add nsw i32 %87, 1
  store i32 %88, i32* %3, align 4
  br label %32

89:                                               ; preds = %32
  %90 = load double, double* %7, align 8
  %91 = call i32 (i8*, ...) @printf(i8* getelementptr inbounds ([7 x i8], [7 x i8]* @.str.1, i64 0, i64 0), double %90)
  br label %92

92:                                               ; preds = %89
  %93 = load i32, i32* %2, align 4
  %94 = add nsw i32 %93, 1
  store i32 %94, i32* %2, align 4
  br label %23

95:                                               ; preds = %23
  ret i32 0
}

declare dso_local i32 @__isoc99_scanf(i8*, ...) #1

declare dso_local i32 @printf(i8*, ...) #1


!llvm.module.flags = !{!0}
!llvm.ident = !{!1}

!0 = !{i32 1, !"wchar_size", i32 4}
!1 = !{!"clang version 10.0.0-4ubuntu1 "}
